; ModuleID = '52/4813.c'
source_filename = "52/4813.c"
target datalayout = "e-m:e-p270:32:32-p271:32:32-p272:64:64-i64:64-f80:128-n8:16:32:64-S128"
target triple = "x86_64-pc-linux-gnu"

@.str = private unnamed_addr constant [6 x i8] c"%d %d\00", align 1
@.str.1 = private unnamed_addr constant [3 x i8] c"%d\00", align 1
@.str.2 = private unnamed_addr constant [4 x i8] c"%d \00", align 1

; Function Attrs: noinline nounwind uwtable
define dso_local i32 @main() #0 {
  %1 = alloca i32, align 4
  %2 = alloca i32, align 4
  %3 = alloca i32, align 4
  %4 = alloca i32, align 4
  %5 = alloca i32*, align 8
  %6 = alloca [100 x i32], align 16
  store i32 0, i32* %1, align 4
  %7 = bitcast [100 x i32]* %6 to i8*
  call void @llvm.memset.p0i8.i64(i8* align 16 %7, i8 0, i64 400, i1 false)
  %8 = call i32 (i8*, ...) @__isoc99_scanf(i8* getelementptr inbounds ([6 x i8], [6 x i8]* @.str, i64 0, i64 0), i32* %2, i32* %3)
  %9 = getelementptr inbounds [100 x i32], [100 x i32]* %6, i64 0, i64 0
  store i32* %9, i32** %5, align 8
  br label %10

10:                                               ; preds = %21, %0
  %11 = load i32*, i32** %5, align 8
  %12 = getelementptr inbounds [100 x i32], [100 x i32]* %6, i64 0, i64 0
  %13 = load i32, i32* %2, align 4
  %14 = sext i32 %13 to i64
  %15 = getelementptr inbounds i32, i32* %12, i64 %14
  %16 = getelementptr inbounds i32, i32* %15, i64 -1
  %17 = icmp ule i32* %11, %16
  br i1 %17, label %18, label %24

18:                                               ; preds = %10
  %19 = load i32*, i32** %5, align 8
  %20 = call i32 (i8*, ...) @__isoc99_scanf(i8* getelementptr inbounds ([3 x i8], [3 x i8]* @.str.1, i64 0, i64 0), i32* %19)
  br label %21

21:                                               ; preds = %18
  %22 = load i32*, i32** %5, align 8
  %23 = getelementptr inbounds i32, i32* %22, i32 1
  store i32* %23, i32** %5, align 8
  br label %10

24:                                               ; preds = %10
  %25 = getelementptr inbounds [100 x i32], [100 x i32]* %6, i64 0, i64 0
  %26 = load i32, i32* %2, align 4
  %27 = load i32, i32* %3, align 4
  call void @move(i32* %25, i32 %26, i32 %27)
  %28 = getelementptr inbounds [100 x i32], [100 x i32]* %6, i64 0, i64 0
  store i32* %28, i32** %5, align 8
  br label %29

29:                                               ; preds = %41, %24
  %30 = load i32*, i32** %5, align 8
  %31 = getelementptr inbounds [100 x i32], [100 x i32]* %6, i64 0, i64 0
  %32 = load i32, i32* %2, align 4
  %33 = sext i32 %32 to i64
  %34 = getelementptr inbounds i32, i32* %31, i64 %33
  %35 = getelementptr inbounds i32, i32* %34, i64 -2
  %36 = icmp ule i32* %30, %35
  br i1 %36, label %37, label %44

37:                                               ; preds = %29
  %38 = load i32*, i32** %5, align 8
  %39 = load i32, i32* %38, align 4
  %40 = call i32 (i8*, ...) @printf(i8* getelementptr inbounds ([4 x i8], [4 x i8]* @.str.2, i64 0, i64 0), i32 %39)
  br label %41

41:                                               ; preds = %37
  %42 = load i32*, i32** %5, align 8
  %43 = getelementptr inbounds i32, i32* %42, i32 1
  store i32* %43, i32** %5, align 8
  br label %29

44:                                               ; preds = %29
  %45 = getelementptr inbounds [100 x i32], [100 x i32]* %6, i64 0, i64 0
  %46 = load i32, i32* %2, align 4
  %47 = sext i32 %46 to i64
  %48 = getelementptr inbounds i32, i32* %45, i64 %47
  %49 = getelementptr inbounds i32, i32* %48, i64 -1
  %50 = load i32, i32* %49, align 4
  %51 = call i32 (i8*, ...) @printf(i8* getelementptr inbounds ([3 x i8], [3 x i8]* @.str.1, i64 0, i64 0), i32 %50)
  ret i32 0
}

; Function Attrs: argmemonly nounwind willreturn
declare void @llvm.memset.p0i8.i64(i8* nocapture writeonly, i8, i64, i1 immarg) #1

declare dso_local i32 @__isoc99_scanf(i8*, ...) #2

; Function Attrs: noinline nounwind uwtable
define dso_local void @move(i32* %0, i32 %1, i32 %2) #0 {
  %4 = alloca i32*, align 8
  %5 = alloca i32, align 4
  %6 = alloca i32, align 4
  %7 = alloca i32*, align 8
  %8 = alloca i32, align 4
  store i32* %0, i32** %4, align 8
  store i32 %1, i32* %5, align 4
  store i32 %2, i32* %6, align 4
  %9 = load i32*, i32** %4, align 8
  %10 = load i32, i32* %5, align 4
  %11 = sext i32 %10 to i64
  %12 = getelementptr inbounds i32, i32* %9, i64 %11
  %13 = getelementptr inbounds i32, i32* %12, i64 -1
  %14 = load i32, i32* %13, align 4
  store i32 %14, i32* %8, align 4
  %15 = load i32*, i32** %4, align 8
  %16 = load i32, i32* %5, align 4
  %17 = sext i32 %16 to i64
  %18 = getelementptr inbounds i32, i32* %15, i64 %17
  %19 = getelementptr inbounds i32, i32* %18, i64 -1
  store i32* %19, i32** %7, align 8
  br label %20

20:                                               ; preds = %30, %3
  %21 = load i32*, i32** %7, align 8
  %22 = load i32*, i32** %4, align 8
  %23 = getelementptr inbounds i32, i32* %22, i64 1
  %24 = icmp uge i32* %21, %23
  br i1 %24, label %25, label %33

25:                                               ; preds = %20
  %26 = load i32*, i32** %7, align 8
  %27 = getelementptr inbounds i32, i32* %26, i64 -1
  %28 = load i32, i32* %27, align 4
  %29 = load i32*, i32** %7, align 8
  store i32 %28, i32* %29, align 4
  br label %30

30:                                               ; preds = %25
  %31 = load i32*, i32** %7, align 8
  %32 = getelementptr inbounds i32, i32* %31, i32 -1
  store i32* %32, i32** %7, align 8
  br label %20

33:                                               ; preds = %20
  %34 = load i32, i32* %8, align 4
  %35 = load i32*, i32** %4, align 8
  store i32 %34, i32* %35, align 4
  %36 = load i32, i32* %6, align 4
  %37 = add nsw i32 %36, -1
  store i32 %37, i32* %6, align 4
  %38 = load i32, i32* %6, align 4
  %39 = icmp sgt i32 %38, 0
  br i1 %39, label %40, label %44

40:                                               ; preds = %33
  %41 = load i32*, i32** %4, align 8
  %42 = load i32, i32* %5, align 4
  %43 = load i32, i32* %6, align 4
  call void @move(i32* %41, i32 %42, i32 %43)
  br label %44

44:                                               ; preds = %40, %33
  ret void
}

declare dso_local i32 @printf(i8*, ...) #2


!llvm.module.flags = !{!0}
!llvm.ident = !{!1}

!0 = !{i32 1, !"wchar_size", i32 4}
!1 = !{!"clang version 10.0.0-4ubuntu1 "}
