; ModuleID = 'source-C-CXX/51/4813.c'
source_filename = "source-C-CXX/51/4813.c"
target datalayout = "e-m:e-p270:32:32-p271:32:32-p272:64:64-i64:64-f80:128-n8:16:32:64-S128"
target triple = "x86_64-pc-linux-gnu"

@.str = private unnamed_addr constant [6 x i8] c"%d %d\00", align 1
@.str.1 = private unnamed_addr constant [3 x i8] c"%d\00", align 1
@.str.2 = private unnamed_addr constant [4 x i8] c"%d \00", align 1

; Function Attrs: nofree nounwind sspstrong uwtable
define dso_local i32 @main() local_unnamed_addr #0 {
  %1 = alloca i32, align 4
  %2 = alloca i32, align 4
  %3 = alloca [100 x i32], align 16
  %4 = bitcast i32* %1 to i8*
  call void @llvm.lifetime.start.p0i8(i64 4, i8* nonnull %4) #6
  %5 = bitcast i32* %2 to i8*
  call void @llvm.lifetime.start.p0i8(i64 4, i8* nonnull %5) #6
  %6 = bitcast [100 x i32]* %3 to i8*
  call void @llvm.lifetime.start.p0i8(i64 400, i8* nonnull %6) #6
  call void @llvm.memset.p0i8.i64(i8* noundef nonnull align 16 dereferenceable(400) %6, i8 0, i64 400, i1 false)
  %7 = call i32 (i8*, ...) @__isoc99_scanf(i8* getelementptr inbounds ([6 x i8], [6 x i8]* @.str, i64 0, i64 0), i32* nonnull %1, i32* nonnull %2)
  %8 = getelementptr inbounds [100 x i32], [100 x i32]* %3, i64 0, i64 0
  %9 = load i32, i32* %1, align 4, !tbaa !5
  %10 = sext i32 %9 to i64
  %11 = getelementptr inbounds [100 x i32], [100 x i32]* %3, i64 0, i64 %10
  %12 = getelementptr inbounds i32, i32* %11, i64 -1
  %13 = icmp ugt i32* %8, %12
  br i1 %13, label %25, label %14

14:                                               ; preds = %0, %14
  %15 = phi i32* [ %17, %14 ], [ %8, %0 ]
  %16 = call i32 (i8*, ...) @__isoc99_scanf(i8* getelementptr inbounds ([3 x i8], [3 x i8]* @.str.1, i64 0, i64 0), i32* nonnull %15)
  %17 = getelementptr inbounds i32, i32* %15, i64 1
  %18 = load i32, i32* %1, align 4, !tbaa !5
  %19 = sext i32 %18 to i64
  %20 = getelementptr inbounds [100 x i32], [100 x i32]* %3, i64 0, i64 %19
  %21 = getelementptr inbounds i32, i32* %20, i64 -1
  %22 = icmp ugt i32* %17, %21
  br i1 %22, label %23, label %14, !llvm.loop !9

23:                                               ; preds = %14
  %24 = sext i32 %18 to i64
  br label %25

25:                                               ; preds = %23, %0
  %26 = phi i64 [ %10, %0 ], [ %24, %23 ]
  %27 = phi i32 [ %9, %0 ], [ %18, %23 ]
  %28 = load i32, i32* %2, align 4, !tbaa !5
  %29 = add nsw i64 %26, -1
  %30 = getelementptr inbounds [100 x i32], [100 x i32]* %3, i64 0, i64 %29
  %31 = icmp slt i32 %27, 2
  br i1 %31, label %37, label %32

32:                                               ; preds = %25
  %33 = getelementptr inbounds [100 x i32], [100 x i32]* %3, i64 0, i64 1
  %34 = bitcast i32* %33 to i8*
  %35 = shl nsw i64 %26, 2
  %36 = add nsw i64 %35, -4
  br label %42

37:                                               ; preds = %25, %37
  %38 = phi i32 [ %41, %37 ], [ %28, %25 ]
  %39 = load i32, i32* %30, align 4, !tbaa !5
  store i32 %39, i32* %8, align 16, !tbaa !5
  %40 = icmp sgt i32 %38, 1
  %41 = add nsw i32 %38, -1
  br i1 %40, label %37, label %47

42:                                               ; preds = %42, %32
  %43 = phi i32 [ %46, %42 ], [ %28, %32 ]
  %44 = load i32, i32* %30, align 4, !tbaa !5
  call void @llvm.memmove.p0i8.p0i8.i64(i8* nonnull align 4 %34, i8* nonnull align 16 %6, i64 %36, i1 false) #6
  store i32 %44, i32* %8, align 16, !tbaa !5
  %45 = icmp sgt i32 %43, 1
  %46 = add nsw i32 %43, -1
  br i1 %45, label %42, label %47

47:                                               ; preds = %42, %37
  %48 = phi i32 [ %39, %37 ], [ %44, %42 ]
  %49 = getelementptr inbounds [100 x i32], [100 x i32]* %3, i64 0, i64 %26
  %50 = getelementptr inbounds i32, i32* %49, i64 -2
  %51 = icmp ugt i32* %8, %50
  br i1 %51, label %73, label %52

52:                                               ; preds = %47
  %53 = call i32 (i8*, ...) @printf(i8* nonnull dereferenceable(1) getelementptr inbounds ([4 x i8], [4 x i8]* @.str.2, i64 0, i64 0), i32 %48)
  %54 = getelementptr inbounds [100 x i32], [100 x i32]* %3, i64 0, i64 1
  %55 = load i32, i32* %1, align 4, !tbaa !5
  %56 = sext i32 %55 to i64
  %57 = getelementptr inbounds [100 x i32], [100 x i32]* %3, i64 0, i64 %56
  %58 = getelementptr inbounds i32, i32* %57, i64 -2
  %59 = icmp ugt i32* %54, %58
  br i1 %59, label %70, label %60, !llvm.loop !11

60:                                               ; preds = %52, %60
  %61 = phi i32* [ %64, %60 ], [ %54, %52 ]
  %62 = load i32, i32* %61, align 4, !tbaa !5
  %63 = call i32 (i8*, ...) @printf(i8* nonnull dereferenceable(1) getelementptr inbounds ([4 x i8], [4 x i8]* @.str.2, i64 0, i64 0), i32 %62)
  %64 = getelementptr inbounds i32, i32* %61, i64 1
  %65 = load i32, i32* %1, align 4, !tbaa !5
  %66 = sext i32 %65 to i64
  %67 = getelementptr inbounds [100 x i32], [100 x i32]* %3, i64 0, i64 %66
  %68 = getelementptr inbounds i32, i32* %67, i64 -2
  %69 = icmp ugt i32* %64, %68
  br i1 %69, label %70, label %60, !llvm.loop !11

70:                                               ; preds = %60, %52
  %71 = phi i32 [ %55, %52 ], [ %65, %60 ]
  %72 = sext i32 %71 to i64
  br label %73

73:                                               ; preds = %70, %47
  %74 = phi i64 [ %26, %47 ], [ %72, %70 ]
  %75 = getelementptr inbounds [100 x i32], [100 x i32]* %3, i64 0, i64 %74
  %76 = getelementptr inbounds i32, i32* %75, i64 -1
  %77 = load i32, i32* %76, align 4, !tbaa !5
  %78 = call i32 (i8*, ...) @printf(i8* nonnull dereferenceable(1) getelementptr inbounds ([3 x i8], [3 x i8]* @.str.1, i64 0, i64 0), i32 %77)
  call void @llvm.lifetime.end.p0i8(i64 400, i8* nonnull %6) #6
  call void @llvm.lifetime.end.p0i8(i64 4, i8* nonnull %5) #6
  call void @llvm.lifetime.end.p0i8(i64 4, i8* nonnull %4) #6
  ret i32 0
}

; Function Attrs: argmemonly mustprogress nofree nosync nounwind willreturn
declare void @llvm.lifetime.start.p0i8(i64 immarg, i8* nocapture) #1

; Function Attrs: argmemonly mustprogress nofree nounwind willreturn writeonly
declare void @llvm.memset.p0i8.i64(i8* nocapture writeonly, i8, i64, i1 immarg) #2

; Function Attrs: nofree nounwind
declare noundef i32 @__isoc99_scanf(i8* nocapture noundef readonly, ...) local_unnamed_addr #3

; Function Attrs: nofree nosync nounwind sspstrong uwtable
define dso_local void @move(i32* nocapture %0, i32 %1, i32 %2) local_unnamed_addr #4 {
  %4 = bitcast i32* %0 to i8*
  %5 = sext i32 %1 to i64
  %6 = add nsw i64 %5, -1
  %7 = getelementptr inbounds i32, i32* %0, i64 %6
  %8 = icmp slt i32 %1, 2
  br i1 %8, label %14, label %9

9:                                                ; preds = %3
  %10 = getelementptr i32, i32* %0, i64 1
  %11 = bitcast i32* %10 to i8*
  %12 = shl nsw i64 %5, 2
  %13 = add nsw i64 %12, -4
  br label %19

14:                                               ; preds = %3, %14
  %15 = phi i32 [ %18, %14 ], [ %2, %3 ]
  %16 = load i32, i32* %7, align 4, !tbaa !5
  store i32 %16, i32* %0, align 4, !tbaa !5
  %17 = icmp sgt i32 %15, 1
  %18 = add nsw i32 %15, -1
  br i1 %17, label %14, label %24

19:                                               ; preds = %9, %19
  %20 = phi i32 [ %23, %19 ], [ %2, %9 ]
  %21 = load i32, i32* %7, align 4, !tbaa !5
  call void @llvm.memmove.p0i8.p0i8.i64(i8* align 4 %11, i8* align 4 %4, i64 %13, i1 false)
  store i32 %21, i32* %0, align 4, !tbaa !5
  %22 = icmp sgt i32 %20, 1
  %23 = add nsw i32 %20, -1
  br i1 %22, label %19, label %24

24:                                               ; preds = %19, %14
  ret void
}

; Function Attrs: nofree nounwind
declare noundef i32 @printf(i8* nocapture noundef readonly, ...) local_unnamed_addr #3

; Function Attrs: argmemonly mustprogress nofree nosync nounwind willreturn
declare void @llvm.lifetime.end.p0i8(i64 immarg, i8* nocapture) #1

; Function Attrs: argmemonly nofree nounwind willreturn
declare void @llvm.memmove.p0i8.p0i8.i64(i8* nocapture writeonly, i8* nocapture readonly, i64, i1 immarg) #5


!llvm.module.flags = !{!0, !1, !2, !3}
!llvm.ident = !{!4}

!0 = !{i32 1, !"wchar_size", i32 4}
!1 = !{i32 7, !"PIC Level", i32 2}
!2 = !{i32 7, !"PIE Level", i32 2}
!3 = !{i32 7, !"uwtable", i32 1}
!4 = !{!"clang version 13.0.0"}
!5 = !{!6, !6, i64 0}
!6 = !{!"int", !7, i64 0}
!7 = !{!"omnipotent char", !8, i64 0}
!8 = !{!"Simple C/C++ TBAA"}
!9 = distinct !{!9, !10}
!10 = !{!"llvm.loop.mustprogress"}
!11 = distinct !{!11, !10}
